; Function Attrs: nounwind uwtable
define internal fastcc i64 @BuildAndStoreLiteralPrefixCode(ptr noundef initializes((6288, 7312)) %0, ptr noundef readonly captures(none) %1, i64 noundef %2, ptr noundef %3, ptr noundef %4, ptr noundef %5, ptr noundef %6) unnamed_addr #0 {
  %8 = getelementptr inbounds nuw i8, ptr %0, i64 6288
  tail call void @llvm.memset.p0.i64(ptr noundef nonnull align 4 dereferenceable(1024) %8, i8 0, i64 1024, i1 false)
  %9 = icmp ult i64 %2, 32768
  br i1 %9, label %.preheader60, label %.preheader62

.preheader60:                                     ; preds = %7
  %.not71 = icmp eq i64 %2, 0
  br i1 %.not71, label %.preheader.preheader, label %.lr.ph

.lr.ph:                                           ; preds = %.preheader60, %.lr.ph
  %.05466 = phi i64 [ %16, %.lr.ph ], [ 0, %.preheader60 ]
  %10 = getelementptr inbounds nuw i8, ptr %1, i64 %.05466
  %11 = load i8, ptr %10, align 1, !tbaa !7
  %12 = zext i8 %11 to i64
  %13 = getelementptr inbounds nuw i32, ptr %8, i64 %12
  %14 = load i32, ptr %13, align 4, !tbaa !77
  %15 = add i32 %14, 1
  store i32 %15, ptr %13, align 4, !tbaa !77
  %16 = add nuw nsw i64 %.05466, 1
  %exitcond74.not = icmp eq i64 %16, %2
  br i1 %exitcond74.not, label %.preheader.preheader, label %.lr.ph, !llvm.loop !1296

.preheader.preheader:                             ; preds = %.lr.ph, %.preheader60
  br label %.preheader

.preheader:                                       ; preds = %.preheader.preheader, %.preheader
  %.05268 = phi i64 [ %23, %.preheader ], [ %2, %.preheader.preheader ]
  %.15567 = phi i64 [ %24, %.preheader ], [ 0, %.preheader.preheader ]
  %17 = getelementptr inbounds nuw i32, ptr %8, i64 %.15567
  %18 = load i32, ptr %17, align 4, !tbaa !77
  %19 = tail call i32 @llvm.umin.i32(i32 %18, i32 11)
  %20 = shl nuw nsw i32 %19, 1
  %21 = add i32 %20, %18
  store i32 %21, ptr %17, align 4, !tbaa !77
  %22 = zext nneg i32 %20 to i64
  %23 = add i64 %.05268, %22
  %24 = add nuw nsw i64 %.15567, 1
  %exitcond75.not = icmp eq i64 %24, 256
  br i1 %exitcond75.not, label %.loopexit, label %.preheader, !llvm.loop !1297

.preheader62:                                     ; preds = %7, %.preheader62
  %.25663 = phi i64 [ %31, %.preheader62 ], [ 0, %7 ]
  %25 = getelementptr inbounds nuw i8, ptr %1, i64 %.25663
  %26 = load i8, ptr %25, align 1, !tbaa !7
  %27 = zext i8 %26 to i64
  %28 = getelementptr inbounds nuw i32, ptr %8, i64 %27
  %29 = load i32, ptr %28, align 4, !tbaa !77
  %30 = add i32 %29, 1
  store i32 %30, ptr %28, align 4, !tbaa !77
  %31 = add i64 %.25663, 29
  %32 = icmp ult i64 %31, %2
  br i1 %32, label %.preheader62, label %33, !llvm.loop !1298

33:                                               ; preds = %.preheader62
  %34 = add i64 %2, 28
  %35 = udiv i64 %34, 29
  br label %36

36:                                               ; preds = %33, %36
  %.265 = phi i64 [ %35, %33 ], [ %44, %36 ]
  %.364 = phi i64 [ 0, %33 ], [ %45, %36 ]
  %37 = getelementptr inbounds nuw i32, ptr %8, i64 %.364
  %38 = load i32, ptr %37, align 4, !tbaa !77
  %39 = tail call i32 @llvm.umin.i32(i32 %38, i32 11)
  %40 = shl nuw nsw i32 %39, 1
  %41 = or disjoint i32 %40, 1
  %42 = add i32 %41, %38
  store i32 %42, ptr %37, align 4, !tbaa !77
  %43 = zext nneg i32 %41 to i64
  %44 = add i64 %.265, %43
  %45 = add nuw nsw i64 %.364, 1
  %exitcond.not = icmp eq i64 %45, 256
  br i1 %exitcond.not, label %.loopexit, label %36, !llvm.loop !1299

.loopexit:                                        ; preds = %36, %.preheader
  %.153 = phi i64 [ %23, %.preheader ], [ %44, %36 ]
  %46 = getelementptr inbounds nuw i8, ptr %0, i64 2184
  tail call void @BrotliBuildAndStoreHuffmanTreeFast(ptr noundef nonnull %46, ptr noundef nonnull %8, i64 noundef %.153, i64 noundef 8, ptr noundef %3, ptr noundef %4, ptr noundef %5, ptr noundef %6) #10
  br label %47

47:                                               ; preds = %.loopexit, %57
  %.070 = phi i64 [ 0, %.loopexit ], [ %.1, %57 ]
  %.469 = phi i64 [ 0, %.loopexit ], [ %58, %57 ]
  %48 = getelementptr inbounds nuw i32, ptr %8, i64 %.469
  %49 = load i32, ptr %48, align 4, !tbaa !77
  %.not = icmp eq i32 %49, 0
  br i1 %.not, label %57, label %50

50:                                               ; preds = %47
  %51 = getelementptr inbounds nuw i8, ptr %3, i64 %.469
  %52 = load i8, ptr %51, align 1, !tbaa !7
  %53 = zext i8 %52 to i32
  %54 = mul i32 %49, %53
  %55 = zext i32 %54 to i64
  %56 = add i64 %.070, %55
  br label %57

57:                                               ; preds = %47, %50
  %.1 = phi i64 [ %56, %50 ], [ %.070, %47 ]
  %58 = add nuw nsw i64 %.469, 1
  %exitcond76.not = icmp eq i64 %58, 256
  br i1 %exitcond76.not, label %59, label %47, !llvm.loop !1300

59:                                               ; preds = %57
  %60 = mul i64 %.1, 125
  %61 = udiv i64 %60, %.153
  ret i64 %61
}